target datalayout = "e-m:e-p270:32:32-p271:32:32-p272:64:64-i64:64-i128:128-f80:128-n8:16:32:64-S128"
target triple = "x86_64-pc-linux-gnu"

%"class.Imf_3_4::TypedAttribute" = type { %"class.Imf_3_4::Attribute", %"class.Imf_3_4::PreviewImage" }
%"class.Imf_3_4::Attribute" = type { ptr }
%"class.Imf_3_4::PreviewImage" = type { i32, i32, ptr }
%"struct.Imf_3_4::PreviewRgba" = type { i8, i8, i8, i8 }

@.str.2 = private unnamed_addr constant [46 x i8] c"Invalid dimensions in Preview Image Attribute\00", align 1
@_ZTIN7Iex_3_48InputExcE = external constant ptr
@.str.3 = private unnamed_addr constant [61 x i8] c"Mismatch between Preview Image Attribute size and dimensions\00", align 1

; Function Attrs: inlinehint mustprogress uwtable
define linkonce_odr hidden noundef zeroext i1 @_ZN7Imf_3_48StreamIO9readCharsERNS_7IStreamEPci(ptr noundef nonnull align 8 dereferenceable(40) %0, ptr noundef %1, i32 noundef %2) #11 comdat align 2 {
  %4 = alloca ptr, align 8
  %5 = alloca ptr, align 8
  %6 = alloca i32, align 4
  store ptr %0, ptr %4, align 8, !tbaa !32
  store ptr %1, ptr %5, align 8, !tbaa !37
  store i32 %2, ptr %6, align 4, !tbaa !16
  %7 = load ptr, ptr %4, align 8, !tbaa !32
  %8 = load ptr, ptr %5, align 8, !tbaa !37
  %9 = load i32, ptr %6, align 4, !tbaa !16
  %10 = load ptr, ptr %7, align 8, !tbaa !10
  %11 = getelementptr inbounds ptr, ptr %10, i64 3
  %12 = load ptr, ptr %11, align 8
  %13 = call noundef zeroext i1 %12(ptr noundef nonnull align 8 dereferenceable(40) %7, ptr noundef %8, i32 noundef %9)
  ret i1 %13
}

; Function Attrs: inlinehint mustprogress uwtable
define linkonce_odr hidden void @_ZN7Imf_3_43Xdr17readUnsignedCharsINS_8StreamIOENS_7IStreamEEEvRT0_Phi(ptr noundef nonnull align 8 dereferenceable(40) %0, ptr noundef %1, i32 noundef %2) #11 comdat {
  %4 = alloca ptr, align 8
  %5 = alloca ptr, align 8
  %6 = alloca i32, align 4
  store ptr %0, ptr %4, align 8, !tbaa !32
  store ptr %1, ptr %5, align 8, !tbaa !37
  store i32 %2, ptr %6, align 4, !tbaa !16
  %7 = load ptr, ptr %4, align 8, !tbaa !32
  %8 = load ptr, ptr %5, align 8, !tbaa !37
  %9 = load i32, ptr %6, align 4, !tbaa !16
  %10 = call noundef zeroext i1 @_ZN7Imf_3_48StreamIO9readCharsERNS_7IStreamEPci(ptr noundef nonnull align 8 dereferenceable(40) %7, ptr noundef %8, i32 noundef %9)
  ret void
}

; Function Attrs: inlinehint mustprogress uwtable
define linkonce_odr hidden void @_ZN7Imf_3_43Xdr15readSignedCharsINS_8StreamIOENS_7IStreamEEEvRT0_Pai(ptr noundef nonnull align 8 dereferenceable(40) %0, ptr noundef %1, i32 noundef %2) #11 comdat {
  %4 = alloca ptr, align 8
  %5 = alloca ptr, align 8
  %6 = alloca i32, align 4
  store ptr %0, ptr %4, align 8, !tbaa !32
  store ptr %1, ptr %5, align 8, !tbaa !37
  store i32 %2, ptr %6, align 4, !tbaa !16
  %7 = load ptr, ptr %4, align 8, !tbaa !32
  %8 = load ptr, ptr %5, align 8, !tbaa !37
  %9 = load i32, ptr %6, align 4, !tbaa !16
  %10 = call noundef zeroext i1 @_ZN7Imf_3_48StreamIO9readCharsERNS_7IStreamEPci(ptr noundef nonnull align 8 dereferenceable(40) %7, ptr noundef %8, i32 noundef %9)
  ret void
}

; Function Attrs: inlinehint mustprogress uwtable
define linkonce_odr hidden void @_ZN7Imf_3_43Xdr4readINS_8StreamIOENS_7IStreamEEEvRT0_Rh(ptr noundef nonnull align 8 dereferenceable(40) %0, ptr noundef nonnull align 1 dereferenceable(1) %1) #11 comdat {
  %3 = alloca ptr, align 8
  %4 = alloca ptr, align 8
  store ptr %0, ptr %3, align 8, !tbaa !32
  store ptr %1, ptr %4, align 8, !tbaa !37
  %5 = load ptr, ptr %3, align 8, !tbaa !32
  %6 = load ptr, ptr %4, align 8, !tbaa !37
  call void @_ZN7Imf_3_43Xdr17readUnsignedCharsINS_8StreamIOENS_7IStreamEEEvRT0_Phi(ptr noundef nonnull align 8 dereferenceable(40) %5, ptr noundef %6, i32 noundef 1)
  ret void
}

; Function Attrs: inlinehint mustprogress nounwind uwtable
define linkonce_odr hidden noundef ptr @_ZN7Imf_3_412PreviewImage6pixelsEv(ptr noundef nonnull align 8 dereferenceable(16) %0) #7 comdat align 2 {
  %2 = alloca ptr, align 8
  store ptr %0, ptr %2, align 8, !tbaa !8
  %3 = load ptr, ptr %2, align 8
  %4 = getelementptr inbounds nuw %"class.Imf_3_4::PreviewImage", ptr %3, i32 0, i32 2
  %5 = load ptr, ptr %4, align 8, !tbaa !31
  ret ptr %5
}

; Function Attrs: inlinehint mustprogress nounwind uwtable
define linkonce_odr hidden noundef i32 @_ZNK7Imf_3_412PreviewImage6heightEv(ptr noundef nonnull align 8 dereferenceable(16) %0) #7 comdat align 2 {
  %2 = alloca ptr, align 8
  store ptr %0, ptr %2, align 8, !tbaa !8
  %3 = load ptr, ptr %2, align 8
  %4 = getelementptr inbounds nuw %"class.Imf_3_4::PreviewImage", ptr %3, i32 0, i32 1
  %5 = load i32, ptr %4, align 4, !tbaa !30
  ret i32 %5
}

; Function Attrs: inlinehint mustprogress nounwind uwtable
define linkonce_odr hidden noundef i32 @_ZNK7Imf_3_412PreviewImage5widthEv(ptr noundef nonnull align 8 dereferenceable(16) %0) #7 comdat align 2 {
  %2 = alloca ptr, align 8
  store ptr %0, ptr %2, align 8, !tbaa !8
  %3 = load ptr, ptr %2, align 8
  %4 = getelementptr inbounds nuw %"class.Imf_3_4::PreviewImage", ptr %3, i32 0, i32 0
  %5 = load i32, ptr %4, align 8, !tbaa !28
  ret i32 %5
}

; Function Attrs: mustprogress uwtable
define linkonce_odr hidden void @_ZN7Imf_3_43Xdr4readINS_8StreamIOENS_7IStreamEEEvRT0_Ri(ptr noundef nonnull align 8 dereferenceable(40) %0, ptr noundef nonnull align 4 dereferenceable(4) %1) #4 comdat {
  %3 = alloca ptr, align 8
  %4 = alloca ptr, align 8
  %5 = alloca [4 x i8], align 1
  store ptr %0, ptr %3, align 8, !tbaa !32
  store ptr %1, ptr %4, align 8, !tbaa !35
  call void @llvm.lifetime.start.p0(i64 4, ptr %5) #3
  %6 = load ptr, ptr %3, align 8, !tbaa !32
  %7 = getelementptr inbounds [4 x i8], ptr %5, i64 0, i64 0
  call void @_ZN7Imf_3_43Xdr15readSignedCharsINS_8StreamIOENS_7IStreamEEEvRT0_Pai(ptr noundef nonnull align 8 dereferenceable(40) %6, ptr noundef %7, i32 noundef 4)
  %8 = getelementptr inbounds [4 x i8], ptr %5, i64 0, i64 0
  %9 = load i8, ptr %8, align 1, !tbaa !27
  %10 = zext i8 %9 to i32
  %11 = and i32 %10, 255
  %12 = getelementptr inbounds [4 x i8], ptr %5, i64 0, i64 1
  %13 = load i8, ptr %12, align 1, !tbaa !27
  %14 = zext i8 %13 to i32
  %15 = shl i32 %14, 8
  %16 = and i32 %15, 65280
  %17 = or i32 %11, %16
  %18 = getelementptr inbounds [4 x i8], ptr %5, i64 0, i64 2
  %19 = load i8, ptr %18, align 1, !tbaa !27
  %20 = zext i8 %19 to i32
  %21 = shl i32 %20, 16
  %22 = and i32 %21, 16711680
  %23 = or i32 %17, %22
  %24 = getelementptr inbounds [4 x i8], ptr %5, i64 0, i64 3
  %25 = load i8, ptr %24, align 1, !tbaa !27
  %26 = zext i8 %25 to i32
  %27 = shl i32 %26, 24
  %28 = or i32 %23, %27
  %29 = load ptr, ptr %4, align 8, !tbaa !35
  store i32 %28, ptr %29, align 4, !tbaa !16
  call void @llvm.lifetime.end.p0(i64 4, ptr %5) #3
  ret void
}

; Function Attrs: mustprogress uwtable
define void @_ZN7Imf_3_414TypedAttributeINS_12PreviewImageEE13readValueFromERNS_7IStreamEii(ptr noundef nonnull align 8 dereferenceable(24) %0, ptr noundef nonnull align 8 dereferenceable(40) %1, i32 noundef %2, i32 noundef %3) unnamed_addr #4 align 2 personality ptr @__gxx_personality_v0 {
  %5 = alloca ptr, align 8
  %6 = alloca ptr, align 8
  %7 = alloca i32, align 4
  %8 = alloca i32, align 4
  %9 = alloca i32, align 4
  %10 = alloca i32, align 4
  %11 = alloca ptr, align 8
  %12 = alloca i32, align 4
  %13 = alloca %"class.Imf_3_4::PreviewImage", align 8
  %14 = alloca i32, align 4
  %15 = alloca ptr, align 8
  %16 = alloca i32, align 4
  store ptr %0, ptr %5, align 8, !tbaa !3
  store ptr %1, ptr %6, align 8, !tbaa !32
  store i32 %2, ptr %7, align 4, !tbaa !16
  store i32 %3, ptr %8, align 4, !tbaa !16
  %17 = load ptr, ptr %5, align 8
  call void @llvm.lifetime.start.p0(i64 4, ptr %9) #3
  call void @llvm.lifetime.start.p0(i64 4, ptr %10) #3
  %18 = load ptr, ptr %6, align 8, !tbaa !32
  call void @_ZN7Imf_3_43Xdr4readINS_8StreamIOENS_7IStreamEEEvRT0_Ri(ptr noundef nonnull align 8 dereferenceable(40) %18, ptr noundef nonnull align 4 dereferenceable(4) %9)
  %19 = load ptr, ptr %6, align 8, !tbaa !32
  call void @_ZN7Imf_3_43Xdr4readINS_8StreamIOENS_7IStreamEEEvRT0_Ri(ptr noundef nonnull align 8 dereferenceable(40) %19, ptr noundef nonnull align 4 dereferenceable(4) %10)
  %20 = load i32, ptr %9, align 4, !tbaa !16
  %21 = icmp slt i32 %20, 0
  br i1 %21, label %25, label %22

22:                                               ; preds = %4
  %23 = load i32, ptr %10, align 4, !tbaa !16
  %24 = icmp slt i32 %23, 0
  br i1 %24, label %25, label %32

25:                                               ; preds = %22, %4
  %26 = call ptr @__cxa_allocate_exception(i64 72) #3
  invoke void @_ZN7Iex_3_48InputExcC1EPKc(ptr noundef nonnull align 8 dereferenceable(72) %26, ptr noundef @.str.2)
          to label %27 unwind label %28

27:                                               ; preds = %25
  call void @__cxa_throw(ptr %26, ptr @_ZTIN7Iex_3_48InputExcE, ptr @_ZN7Iex_3_48InputExcD1Ev) #15
  unreachable

28:                                               ; preds = %25
  %29 = landingpad { ptr, i32 }
          cleanup
  %30 = extractvalue { ptr, i32 } %29, 0
  store ptr %30, ptr %11, align 8
  %31 = extractvalue { ptr, i32 } %29, 1
  store i32 %31, ptr %12, align 4
  call void @__cxa_free_exception(ptr %26) #3
  br label %115

32:                                               ; preds = %22
  %33 = load i32, ptr %9, align 4, !tbaa !16
  %34 = sext i32 %33 to i64
  %35 = load i32, ptr %10, align 4, !tbaa !16
  %36 = sext i32 %35 to i64
  %37 = mul i64 %34, %36
  %38 = mul i64 %37, 4
  %39 = add i64 %38, 8
  %40 = load i32, ptr %7, align 4, !tbaa !16
  %41 = sext i32 %40 to i64
  %42 = icmp ne i64 %39, %41
  br i1 %42, label %43, label %50

43:                                               ; preds = %32
  %44 = call ptr @__cxa_allocate_exception(i64 72) #3
  invoke void @_ZN7Iex_3_48InputExcC1EPKc(ptr noundef nonnull align 8 dereferenceable(72) %44, ptr noundef @.str.3)
          to label %45 unwind label %46

45:                                               ; preds = %43
  call void @__cxa_throw(ptr %44, ptr @_ZTIN7Iex_3_48InputExcE, ptr @_ZN7Iex_3_48InputExcD1Ev) #15
  unreachable

46:                                               ; preds = %43
  %47 = landingpad { ptr, i32 }
          cleanup
  %48 = extractvalue { ptr, i32 } %47, 0
  store ptr %48, ptr %11, align 8
  %49 = extractvalue { ptr, i32 } %47, 1
  store i32 %49, ptr %12, align 4
  call void @__cxa_free_exception(ptr %44) #3
  br label %115

50:                                               ; preds = %32
  call void @llvm.lifetime.start.p0(i64 16, ptr %13) #3
  %51 = load i32, ptr %9, align 4, !tbaa !16
  %52 = load i32, ptr %10, align 4, !tbaa !16
  call void @_ZN7Imf_3_412PreviewImageC1EjjPKNS_11PreviewRgbaE(ptr noundef nonnull align 8 dereferenceable(16) %13, i32 noundef %51, i32 noundef %52, ptr noundef null)
  call void @llvm.lifetime.start.p0(i64 4, ptr %14) #3
  %53 = invoke noundef i32 @_ZNK7Imf_3_412PreviewImage5widthEv(ptr noundef nonnull align 8 dereferenceable(16) %13)
          to label %54 unwind label %65

54:                                               ; preds = %50
  %55 = invoke noundef i32 @_ZNK7Imf_3_412PreviewImage6heightEv(ptr noundef nonnull align 8 dereferenceable(16) %13)
          to label %56 unwind label %65

56:                                               ; preds = %54
  %57 = mul i32 %53, %55
  store i32 %57, ptr %14, align 4, !tbaa !16
  call void @llvm.lifetime.start.p0(i64 8, ptr %15) #3
  %58 = invoke noundef ptr @_ZN7Imf_3_412PreviewImage6pixelsEv(ptr noundef nonnull align 8 dereferenceable(16) %13)
          to label %59 unwind label %69

59:                                               ; preds = %56
  store ptr %58, ptr %15, align 8, !tbaa !18
  call void @llvm.lifetime.start.p0(i64 4, ptr %16) #3
  store i32 0, ptr %16, align 4, !tbaa !16
  br label %60

60:                                               ; preds = %102, %59
  %61 = load i32, ptr %16, align 4, !tbaa !16
  %62 = load i32, ptr %14, align 4, !tbaa !16
  %63 = icmp slt i32 %61, %62
  br i1 %63, label %73, label %64

64:                                               ; preds = %60
  call void @llvm.lifetime.end.p0(i64 4, ptr %16) #3
  br label %109

65:                                               ; preds = %54, %50
  %66 = landingpad { ptr, i32 }
          cleanup
  %67 = extractvalue { ptr, i32 } %66, 0
  store ptr %67, ptr %11, align 8
  %68 = extractvalue { ptr, i32 } %66, 1
  store i32 %68, ptr %12, align 4
  br label %114

69:                                               ; preds = %109, %56
  %70 = landingpad { ptr, i32 }
          cleanup
  %71 = extractvalue { ptr, i32 } %70, 0
  store ptr %71, ptr %11, align 8
  %72 = extractvalue { ptr, i32 } %70, 1
  store i32 %72, ptr %12, align 4
  br label %113

73:                                               ; preds = %60
  %74 = load ptr, ptr %6, align 8, !tbaa !32
  %75 = load ptr, ptr %15, align 8, !tbaa !18
  %76 = load i32, ptr %16, align 4, !tbaa !16
  %77 = sext i32 %76 to i64
  %78 = getelementptr inbounds %"struct.Imf_3_4::PreviewRgba", ptr %75, i64 %77
  %79 = getelementptr inbounds nuw %"struct.Imf_3_4::PreviewRgba", ptr %78, i32 0, i32 0
  invoke void @_ZN7Imf_3_43Xdr4readINS_8StreamIOENS_7IStreamEEEvRT0_Rh(ptr noundef nonnull align 8 dereferenceable(40) %74, ptr noundef nonnull align 1 dereferenceable(1) %79)
          to label %80 unwind label %105

80:                                               ; preds = %73
  %81 = load ptr, ptr %6, align 8, !tbaa !32
  %82 = load ptr, ptr %15, align 8, !tbaa !18
  %83 = load i32, ptr %16, align 4, !tbaa !16
  %84 = sext i32 %83 to i64
  %85 = getelementptr inbounds %"struct.Imf_3_4::PreviewRgba", ptr %82, i64 %84
  %86 = getelementptr inbounds nuw %"struct.Imf_3_4::PreviewRgba", ptr %85, i32 0, i32 1
  invoke void @_ZN7Imf_3_43Xdr4readINS_8StreamIOENS_7IStreamEEEvRT0_Rh(ptr noundef nonnull align 8 dereferenceable(40) %81, ptr noundef nonnull align 1 dereferenceable(1) %86)
          to label %87 unwind label %105

87:                                               ; preds = %80
  %88 = load ptr, ptr %6, align 8, !tbaa !32
  %89 = load ptr, ptr %15, align 8, !tbaa !18
  %90 = load i32, ptr %16, align 4, !tbaa !16
  %91 = sext i32 %90 to i64
  %92 = getelementptr inbounds %"struct.Imf_3_4::PreviewRgba", ptr %89, i64 %91
  %93 = getelementptr inbounds nuw %"struct.Imf_3_4::PreviewRgba", ptr %92, i32 0, i32 2
  invoke void @_ZN7Imf_3_43Xdr4readINS_8StreamIOENS_7IStreamEEEvRT0_Rh(ptr noundef nonnull align 8 dereferenceable(40) %88, ptr noundef nonnull align 1 dereferenceable(1) %93)
          to label %94 unwind label %105

94:                                               ; preds = %87
  %95 = load ptr, ptr %6, align 8, !tbaa !32
  %96 = load ptr, ptr %15, align 8, !tbaa !18
  %97 = load i32, ptr %16, align 4, !tbaa !16
  %98 = sext i32 %97 to i64
  %99 = getelementptr inbounds %"struct.Imf_3_4::PreviewRgba", ptr %96, i64 %98
  %100 = getelementptr inbounds nuw %"struct.Imf_3_4::PreviewRgba", ptr %99, i32 0, i32 3
  invoke void @_ZN7Imf_3_43Xdr4readINS_8StreamIOENS_7IStreamEEEvRT0_Rh(ptr noundef nonnull align 8 dereferenceable(40) %95, ptr noundef nonnull align 1 dereferenceable(1) %100)
          to label %101 unwind label %105

101:                                              ; preds = %94
  br label %102

102:                                              ; preds = %101
  %103 = load i32, ptr %16, align 4, !tbaa !16
  %104 = add nsw i32 %103, 1
  store i32 %104, ptr %16, align 4, !tbaa !16
  br label %60, !llvm.loop !34

105:                                              ; preds = %94, %87, %80, %73
  %106 = landingpad { ptr, i32 }
          cleanup
  %107 = extractvalue { ptr, i32 } %106, 0
  store ptr %107, ptr %11, align 8
  %108 = extractvalue { ptr, i32 } %106, 1
  store i32 %108, ptr %12, align 4
  call void @llvm.lifetime.end.p0(i64 4, ptr %16) #3
  br label %113

109:                                              ; preds = %64
  %110 = getelementptr inbounds nuw %"class.Imf_3_4::TypedAttribute", ptr %17, i32 0, i32 1
  %111 = invoke noundef nonnull align 8 dereferenceable(16) ptr @_ZN7Imf_3_412PreviewImageaSERKS0_(ptr noundef nonnull align 8 dereferenceable(16) %110, ptr noundef nonnull align 8 dereferenceable(16) %13)
          to label %112 unwind label %69

112:                                              ; preds = %109
  call void @llvm.lifetime.end.p0(i64 8, ptr %15) #3
  call void @llvm.lifetime.end.p0(i64 4, ptr %14) #3
  call void @_ZN7Imf_3_412PreviewImageD1Ev(ptr noundef nonnull align 8 dereferenceable(16) %13) #3
  call void @llvm.lifetime.end.p0(i64 16, ptr %13) #3
  call void @llvm.lifetime.end.p0(i64 4, ptr %10) #3
  call void @llvm.lifetime.end.p0(i64 4, ptr %9) #3
  ret void

113:                                              ; preds = %105, %69
  call void @llvm.lifetime.end.p0(i64 8, ptr %15) #3
  br label %114

114:                                              ; preds = %113, %65
  call void @llvm.lifetime.end.p0(i64 4, ptr %14) #3
  call void @_ZN7Imf_3_412PreviewImageD1Ev(ptr noundef nonnull align 8 dereferenceable(16) %13) #3
  call void @llvm.lifetime.end.p0(i64 16, ptr %13) #3
  br label %115

115:                                              ; preds = %114, %46, %28
  call void @llvm.lifetime.end.p0(i64 4, ptr %10) #3
  call void @llvm.lifetime.end.p0(i64 4, ptr %9) #3
  br label %116

116:                                              ; preds = %115
  %117 = load ptr, ptr %11, align 8
  %118 = load i32, ptr %12, align 4
  %119 = insertvalue { ptr, i32 } poison, ptr %117, 0
  %120 = insertvalue { ptr, i32 } %119, i32 %118, 1
  resume { ptr, i32 } %120
}