; Function Attrs: mustprogress uwtable
define void @_ZN7Imf_3_414TypedAttributeINS_12PreviewImageEE13readValueFromERNS_7IStreamEii(ptr noundef nonnull align 8 dereferenceable(24) %0, ptr noundef nonnull align 8 dereferenceable(40) %1, i32 noundef %2, i32 %3) unnamed_addr #3 align 2 personality ptr @__gxx_personality_v0 {
  %5 = alloca [4 x i8], align 4
  %6 = alloca [4 x i8], align 4
  %7 = alloca %"class.Imf_3_4::PreviewImage", align 8
  call void @llvm.lifetime.start.p0(i64 4, ptr nonnull %6) #15
  %8 = load ptr, ptr %1, align 8, !tbaa !3
  %9 = getelementptr inbounds nuw i8, ptr %8, i64 24
  %10 = load ptr, ptr %9, align 8
  %11 = call noundef zeroext i1 %10(ptr noundef nonnull align 8 dereferenceable(40) %1, ptr noundef nonnull %6, i32 noundef 4)
  %12 = load i32, ptr %6, align 4
  call void @llvm.lifetime.end.p0(i64 4, ptr nonnull %6) #15
  call void @llvm.lifetime.start.p0(i64 4, ptr nonnull %5) #15
  %13 = load ptr, ptr %1, align 8, !tbaa !3
  %14 = getelementptr inbounds nuw i8, ptr %13, i64 24
  %15 = load ptr, ptr %14, align 8
  %16 = call noundef zeroext i1 %15(ptr noundef nonnull align 8 dereferenceable(40) %1, ptr noundef nonnull %5, i32 noundef 4)
  %17 = load i32, ptr %5, align 4
  call void @llvm.lifetime.end.p0(i64 4, ptr nonnull %5) #15
  %18 = icmp slt i32 %12, 0
  %19 = icmp slt i32 %17, 0
  %or.cond = select i1 %18, i1 true, i1 %19
  br i1 %or.cond, label %20, label %25

20:                                               ; preds = %4
  %21 = call ptr @__cxa_allocate_exception(i64 72) #15
  invoke void @_ZN7Iex_3_48InputExcC1EPKc(ptr noundef nonnull align 8 dereferenceable(72) %21, ptr noundef nonnull @.str.2)
          to label %22 unwind label %23

22:                                               ; preds = %20
  call void @__cxa_throw(ptr nonnull %21, ptr nonnull @_ZTIN7Iex_3_48InputExcE, ptr nonnull @_ZN7Iex_3_48InputExcD1Ev) #18
  unreachable

23:                                               ; preds = %20
  %24 = landingpad { ptr, i32 }
          cleanup
  call void @__cxa_free_exception(ptr nonnull %21) #15
  br label %73

25:                                               ; preds = %4
  %26 = zext nneg i32 %12 to i64
  %27 = zext nneg i32 %17 to i64
  %28 = shl nuw nsw i64 %26, 2
  %29 = mul nuw i64 %28, %27
  %30 = add nuw i64 %29, 8
  %31 = sext i32 %2 to i64
  %.not = icmp eq i64 %30, %31
  br i1 %.not, label %37, label %32

32:                                               ; preds = %25
  %33 = call ptr @__cxa_allocate_exception(i64 72) #15
  invoke void @_ZN7Iex_3_48InputExcC1EPKc(ptr noundef nonnull align 8 dereferenceable(72) %33, ptr noundef nonnull @.str.3)
          to label %34 unwind label %35

34:                                               ; preds = %32
  call void @__cxa_throw(ptr nonnull %33, ptr nonnull @_ZTIN7Iex_3_48InputExcE, ptr nonnull @_ZN7Iex_3_48InputExcD1Ev) #18
  unreachable

35:                                               ; preds = %32
  %36 = landingpad { ptr, i32 }
          cleanup
  call void @__cxa_free_exception(ptr nonnull %33) #15
  br label %73

37:                                               ; preds = %25
  call void @llvm.lifetime.start.p0(i64 16, ptr nonnull %7) #15
  call void @_ZN7Imf_3_412PreviewImageC1EjjPKNS_11PreviewRgbaE(ptr noundef nonnull align 8 dereferenceable(16) %7, i32 noundef %12, i32 noundef %17, ptr noundef null)
  %38 = load i32, ptr %7, align 8, !tbaa !6
  %39 = getelementptr inbounds nuw i8, ptr %7, i64 4
  %40 = load i32, ptr %39, align 4, !tbaa !13
  %41 = mul i32 %40, %38
  %42 = getelementptr inbounds nuw i8, ptr %7, i64 8
  %43 = load ptr, ptr %42, align 8, !tbaa !14
  %44 = icmp sgt i32 %41, 0
  br i1 %44, label %.lr.ph.preheader, label %._crit_edge

.lr.ph.preheader:                                 ; preds = %37
  %wide.trip.count = zext nneg i32 %41 to i64
  br label %.lr.ph

._crit_edge:                                      ; preds = %_ZN7Imf_3_43Xdr4readINS_8StreamIOENS_7IStreamEEEvRT0_Rh.exit31, %37
  %45 = getelementptr inbounds nuw i8, ptr %0, i64 8
  %46 = invoke noundef nonnull align 8 dereferenceable(16) ptr @_ZN7Imf_3_412PreviewImageaSERKS0_(ptr noundef nonnull align 8 dereferenceable(16) %45, ptr noundef nonnull align 8 dereferenceable(16) %7)
          to label %71 unwind label %47

47:                                               ; preds = %._crit_edge
  %48 = landingpad { ptr, i32 }
          cleanup
  br label %72

.lr.ph:                                           ; preds = %.lr.ph.preheader, %_ZN7Imf_3_43Xdr4readINS_8StreamIOENS_7IStreamEEEvRT0_Rh.exit31
  %indvars.iv = phi i64 [ 0, %.lr.ph.preheader ], [ %indvars.iv.next, %_ZN7Imf_3_43Xdr4readINS_8StreamIOENS_7IStreamEEEvRT0_Rh.exit31 ]
  %49 = getelementptr inbounds nuw %"struct.Imf_3_4::PreviewRgba", ptr %43, i64 %indvars.iv
  %50 = load ptr, ptr %1, align 8, !tbaa !3
  %51 = getelementptr inbounds nuw i8, ptr %50, i64 24
  %52 = load ptr, ptr %51, align 8
  %53 = invoke noundef zeroext i1 %52(ptr noundef nonnull align 8 dereferenceable(40) %1, ptr noundef nonnull align 1 dereferenceable(1) %49, i32 noundef 1)
          to label %_ZN7Imf_3_43Xdr4readINS_8StreamIOENS_7IStreamEEEvRT0_Rh.exit unwind label %69

_ZN7Imf_3_43Xdr4readINS_8StreamIOENS_7IStreamEEEvRT0_Rh.exit: ; preds = %.lr.ph
  %54 = getelementptr inbounds nuw i8, ptr %49, i64 1
  %55 = load ptr, ptr %1, align 8, !tbaa !3
  %56 = getelementptr inbounds nuw i8, ptr %55, i64 24
  %57 = load ptr, ptr %56, align 8
  %58 = invoke noundef zeroext i1 %57(ptr noundef nonnull align 8 dereferenceable(40) %1, ptr noundef nonnull align 1 dereferenceable(1) %54, i32 noundef 1)
          to label %_ZN7Imf_3_43Xdr4readINS_8StreamIOENS_7IStreamEEEvRT0_Rh.exit29 unwind label %69

_ZN7Imf_3_43Xdr4readINS_8StreamIOENS_7IStreamEEEvRT0_Rh.exit29: ; preds = %_ZN7Imf_3_43Xdr4readINS_8StreamIOENS_7IStreamEEEvRT0_Rh.exit
  %59 = getelementptr inbounds nuw i8, ptr %49, i64 2
  %60 = load ptr, ptr %1, align 8, !tbaa !3
  %61 = getelementptr inbounds nuw i8, ptr %60, i64 24
  %62 = load ptr, ptr %61, align 8
  %63 = invoke noundef zeroext i1 %62(ptr noundef nonnull align 8 dereferenceable(40) %1, ptr noundef nonnull align 1 dereferenceable(1) %59, i32 noundef 1)
          to label %_ZN7Imf_3_43Xdr4readINS_8StreamIOENS_7IStreamEEEvRT0_Rh.exit30 unwind label %69

_ZN7Imf_3_43Xdr4readINS_8StreamIOENS_7IStreamEEEvRT0_Rh.exit30: ; preds = %_ZN7Imf_3_43Xdr4readINS_8StreamIOENS_7IStreamEEEvRT0_Rh.exit29
  %64 = getelementptr inbounds nuw i8, ptr %49, i64 3
  %65 = load ptr, ptr %1, align 8, !tbaa !3
  %66 = getelementptr inbounds nuw i8, ptr %65, i64 24
  %67 = load ptr, ptr %66, align 8
  %68 = invoke noundef zeroext i1 %67(ptr noundef nonnull align 8 dereferenceable(40) %1, ptr noundef nonnull align 1 dereferenceable(1) %64, i32 noundef 1)
          to label %_ZN7Imf_3_43Xdr4readINS_8StreamIOENS_7IStreamEEEvRT0_Rh.exit31 unwind label %69

_ZN7Imf_3_43Xdr4readINS_8StreamIOENS_7IStreamEEEvRT0_Rh.exit31: ; preds = %_ZN7Imf_3_43Xdr4readINS_8StreamIOENS_7IStreamEEEvRT0_Rh.exit30
  %indvars.iv.next = add nuw nsw i64 %indvars.iv, 1
  %exitcond.not = icmp eq i64 %indvars.iv.next, %wide.trip.count
  br i1 %exitcond.not, label %._crit_edge, label %.lr.ph, !llvm.loop !22

69:                                               ; preds = %_ZN7Imf_3_43Xdr4readINS_8StreamIOENS_7IStreamEEEvRT0_Rh.exit30, %_ZN7Imf_3_43Xdr4readINS_8StreamIOENS_7IStreamEEEvRT0_Rh.exit29, %_ZN7Imf_3_43Xdr4readINS_8StreamIOENS_7IStreamEEEvRT0_Rh.exit, %.lr.ph
  %70 = landingpad { ptr, i32 }
          cleanup
  br label %72

71:                                               ; preds = %._crit_edge
  call void @_ZN7Imf_3_412PreviewImageD1Ev(ptr noundef nonnull align 8 dereferenceable(16) %7) #15
  call void @llvm.lifetime.end.p0(i64 16, ptr nonnull %7) #15
  ret void

72:                                               ; preds = %69, %47
  %.pn = phi { ptr, i32 } [ %70, %69 ], [ %48, %47 ]
  call void @_ZN7Imf_3_412PreviewImageD1Ev(ptr noundef nonnull align 8 dereferenceable(16) %7) #15
  call void @llvm.lifetime.end.p0(i64 16, ptr nonnull %7) #15
  br label %73

73:                                               ; preds = %72, %35, %23
  %.pn27 = phi { ptr, i32 } [ %24, %23 ], [ %36, %35 ], [ %.pn, %72 ]
  resume { ptr, i32 } %.pn27
}